; Function Attrs: mustprogress nofree norecurse nosync nounwind willreturn memory(argmem: readwrite) uwtable
define dso_local void @_ZN5clang15OMPCopyinClause16setAssignmentOpsEN4llvm8ArrayRefIPNS_4ExprEEE(ptr noundef nonnull align 8 captures(none) dereferenceable(24) %0, ptr readonly captures(none) %1, i64 %2) local_unnamed_addr #6 align 2 {
  %.not.i.i.i.i.i = icmp eq i64 %2, 0
  br i1 %.not.i.i.i.i.i, label %_ZSt4copyIPKPN5clang4ExprEPS2_ET0_T_S7_S6_.exit, label %4

4:                                                ; preds = %3
  %.idx = shl nsw i64 %2, 3
  %5 = getelementptr inbounds nuw i8, ptr %0, i64 24
  %6 = getelementptr inbounds nuw i8, ptr %0, i64 16
  %7 = load i32, ptr %6, align 8
  %8 = zext i32 %7 to i64
  %9 = getelementptr inbounds nuw ptr, ptr %5, i64 %8
  %10 = getelementptr inbounds nuw ptr, ptr %9, i64 %8
  %11 = getelementptr inbounds nuw ptr, ptr %10, i64 %8
  tail call void @llvm.memmove.p0.p0.i64(ptr nonnull align 8 %11, ptr align 8 %1, i64 %.idx, i1 false)
  br label %_ZSt4copyIPKPN5clang4ExprEPS2_ET0_T_S7_S6_.exit

_ZSt4copyIPKPN5clang4ExprEPS2_ET0_T_S7_S6_.exit:  ; preds = %3, %4
  ret void
}